
test.o:     file format elf32-tradlittlemips


Disassembly of section .init:

004003f4 <_init@@Base>:
  4003f4:	3c1c0002 	lui	gp,0x2
  4003f8:	279c84ac 	addiu	gp,gp,-31572
  4003fc:	0399e021 	addu	gp,gp,t9
  400400:	27bdffe0 	addiu	sp,sp,-32
  400404:	afbc0010 	sw	gp,16(sp)
  400408:	afbf001c 	sw	ra,28(sp)
  40040c:	8f828024 	lw	v0,-32732(gp)
  400410:	10400004 	beqz	v0,400424 <_init@@Base+0x30>
  400414:	00000000 	nop
  400418:	8f998024 	lw	t9,-32732(gp)
  40041c:	0320f809 	jalr	t9
  400420:	00000000 	nop
  400424:	04110001 	bal	40042c <_init@@Base+0x38>
  400428:	00000000 	nop
  40042c:	3c190040 	lui	t9,0x40
  400430:	273905f0 	addiu	t9,t9,1520
  400434:	0320f809 	jalr	t9
  400438:	00000000 	nop
  40043c:	04110001 	bal	400444 <_init@@Base+0x50>
  400440:	00000000 	nop
  400444:	3c190040 	lui	t9,0x40
  400448:	27390780 	addiu	t9,t9,1920
  40044c:	0320f809 	jalr	t9
  400450:	00000000 	nop
  400454:	8fbf001c 	lw	ra,28(sp)
  400458:	03e00008 	jr	ra
  40045c:	27bd0020 	addiu	sp,sp,32

Disassembly of section .text:

00400460 <.text>:
  400460:	3c1c0042 	lui	gp,0x42
  400464:	279c88a0 	addiu	gp,gp,-30560
  400468:	0000f825 	move	ra,zero
  40046c:	3c040040 	lui	a0,0x40
  400470:	24840640 	addiu	a0,a0,1600
  400474:	8fa50000 	lw	a1,0(sp)
  400478:	27a60004 	addiu	a2,sp,4
  40047c:	2401fff8 	li	at,-8
  400480:	03a1e824 	and	sp,sp,at
  400484:	27bdffe0 	addiu	sp,sp,-32
  400488:	3c070040 	lui	a3,0x40
  40048c:	24e706d0 	addiu	a3,a3,1744
  400490:	3c080040 	lui	t0,0x40
  400494:	25080778 	addiu	t0,t0,1912
  400498:	afa80010 	sw	t0,16(sp)
  40049c:	afa20014 	sw	v0,20(sp)
  4004a0:	afbd0018 	sw	sp,24(sp)
  4004a4:	3c190040 	lui	t9,0x40
  4004a8:	27390860 	addiu	t9,t9,2144
  4004ac:	0320f809 	jalr	t9
  4004b0:	00000000 	nop
  4004b4:	1000ffff 	b	4004b4 <_init@@Base+0xc0>
  4004b8:	00000000 	nop
  4004bc:	00000000 	nop
  4004c0:	3c040041 	lui	a0,0x41
  4004c4:	3c020041 	lui	v0,0x41
  4004c8:	248408a4 	addiu	a0,a0,2212
  4004cc:	244208a7 	addiu	v0,v0,2215
  4004d0:	00441023 	subu	v0,v0,a0
  4004d4:	2c420007 	sltiu	v0,v0,7
  4004d8:	14400006 	bnez	v0,4004f4 <_init@@Base+0x100>
  4004dc:	3c190000 	lui	t9,0x0
  4004e0:	27390000 	addiu	t9,t9,0
  4004e4:	13200003 	beqz	t9,4004f4 <_init@@Base+0x100>
  4004e8:	00000000 	nop
  4004ec:	03200008 	jr	t9
  4004f0:	00000000 	nop
  4004f4:	03e00008 	jr	ra
  4004f8:	00000000 	nop
  4004fc:	3c040041 	lui	a0,0x41
  400500:	3c020041 	lui	v0,0x41
  400504:	248408a4 	addiu	a0,a0,2212
  400508:	244208a4 	addiu	v0,v0,2212
  40050c:	00441023 	subu	v0,v0,a0
  400510:	00021083 	sra	v0,v0,0x2
  400514:	00022fc2 	srl	a1,v0,0x1f
  400518:	00a22821 	addu	a1,a1,v0
  40051c:	00052843 	sra	a1,a1,0x1
  400520:	10a00006 	beqz	a1,40053c <_init@@Base+0x148>
  400524:	3c190000 	lui	t9,0x0
  400528:	27390000 	addiu	t9,t9,0
  40052c:	13200003 	beqz	t9,40053c <_init@@Base+0x148>
  400530:	00000000 	nop
  400534:	03200008 	jr	t9
  400538:	00000000 	nop
  40053c:	03e00008 	jr	ra
  400540:	00000000 	nop
  400544:	27bdffd0 	addiu	sp,sp,-48
  400548:	afb30028 	sw	s3,40(sp)
  40054c:	3c130041 	lui	s3,0x41
  400550:	926208d0 	lbu	v0,2256(s3)
  400554:	afbf002c 	sw	ra,44(sp)
  400558:	afb20024 	sw	s2,36(sp)
  40055c:	afb10020 	sw	s1,32(sp)
  400560:	1440001c 	bnez	v0,4005d4 <_init@@Base+0x1e0>
  400564:	afb0001c 	sw	s0,28(sp)
  400568:	3c110041 	lui	s1,0x41
  40056c:	3c030041 	lui	v1,0x41
  400570:	2463087c 	addiu	v1,v1,2172
  400574:	3c100041 	lui	s0,0x41
  400578:	26310878 	addiu	s1,s1,2168
  40057c:	00718823 	subu	s1,v1,s1
  400580:	8e0208d4 	lw	v0,2260(s0)
  400584:	00118883 	sra	s1,s1,0x2
  400588:	2631ffff 	addiu	s1,s1,-1
  40058c:	3c040041 	lui	a0,0x41
  400590:	0051182b 	sltu	v1,v0,s1
  400594:	24920878 	addiu	s2,a0,2168
  400598:	1060000a 	beqz	v1,4005c4 <_init@@Base+0x1d0>
  40059c:	24420001 	addiu	v0,v0,1
  4005a0:	00021880 	sll	v1,v0,0x2
  4005a4:	02431821 	addu	v1,s2,v1
  4005a8:	8c790000 	lw	t9,0(v1)
  4005ac:	0320f809 	jalr	t9
  4005b0:	ae0208d4 	sw	v0,2260(s0)
  4005b4:	8e0208d4 	lw	v0,2260(s0)
  4005b8:	0051182b 	sltu	v1,v0,s1
  4005bc:	1460fff8 	bnez	v1,4005a0 <_init@@Base+0x1ac>
  4005c0:	24420001 	addiu	v0,v0,1
  4005c4:	0c100130 	jal	4004c0 <_init@@Base+0xcc>
  4005c8:	00000000 	nop
  4005cc:	24020001 	li	v0,1
  4005d0:	a26208d0 	sb	v0,2256(s3)
  4005d4:	8fbf002c 	lw	ra,44(sp)
  4005d8:	8fb30028 	lw	s3,40(sp)
  4005dc:	8fb20024 	lw	s2,36(sp)
  4005e0:	8fb10020 	lw	s1,32(sp)
  4005e4:	8fb0001c 	lw	s0,28(sp)
  4005e8:	03e00008 	jr	ra
  4005ec:	27bd0030 	addiu	sp,sp,48
  4005f0:	3c020041 	lui	v0,0x41
  4005f4:	24440880 	addiu	a0,v0,2176
  4005f8:	8c820000 	lw	v0,0(a0)
  4005fc:	14400003 	bnez	v0,40060c <_init@@Base+0x218>
  400600:	3c190000 	lui	t9,0x0
  400604:	0810013f 	j	4004fc <_init@@Base+0x108>
  400608:	00000000 	nop
  40060c:	27390000 	addiu	t9,t9,0
  400610:	1320fffc 	beqz	t9,400604 <_init@@Base+0x210>
  400614:	00000000 	nop
  400618:	27bdffe0 	addiu	sp,sp,-32
  40061c:	afbf001c 	sw	ra,28(sp)
  400620:	0320f809 	jalr	t9
  400624:	00000000 	nop
  400628:	8fbf001c 	lw	ra,28(sp)
  40062c:	0810013f 	j	4004fc <_init@@Base+0x108>
  400630:	27bd0020 	addiu	sp,sp,32
	...
  400640:	27bdfff8 	addiu	sp,sp,-8
  400644:	afbe0004 	sw	s8,4(sp)
  400648:	03a0f025 	move	s8,sp
  40064c:	40028000 	mfc0	v0,c0_config
  400650:	3c030000 	lui	v1,0x0
  400654:	2463fff8 	addiu	v1,v1,-8
  400658:	00431024 	and	v0,v0,v1
  40065c:	34420003 	ori	v0,v0,0x3
  400660:	40828000 	mtc0	v0,c0_config
  400664:	3c020800 	lui	v0,0x800
  400668:	40826800 	mtc0	v0,c0_cause
  40066c:	40804800 	mtc0	zero,c0_count
  400670:	3c021000 	lui	v0,0x1000
  400674:	40826000 	mtc0	v0,c0_status
  400678:	3c1d8067 	lui	sp,0x8067
  40067c:	27bd2448 	addiu	sp,sp,9288
  400680:	8fbd0000 	lw	sp,0(sp)
  400684:	3c1c8067 	lui	gp,0x8067
  400688:	279c244c 	addiu	gp,gp,9292
  40068c:	8f9c0000 	lw	gp,0(gp)
  400690:	3c1f8049 	lui	ra,0x8049
  400694:	27ffb748 	addiu	ra,ra,-18616
  400698:	03e00008 	jr	ra
  40069c:	00000000 	nop
	...
  4006ac:	00001025 	move	v0,zero
  4006b0:	03c0e825 	move	sp,s8
  4006b4:	8fbe0004 	lw	s8,4(sp)
  4006b8:	27bd0008 	addiu	sp,sp,8
  4006bc:	03e00008 	jr	ra
  4006c0:	00000000 	nop
	...
  4006d0:	3c1c0002 	lui	gp,0x2
  4006d4:	279c81d0 	addiu	gp,gp,-32304
  4006d8:	0399e021 	addu	gp,gp,t9
  4006dc:	8f998018 	lw	t9,-32744(gp)
  4006e0:	27bdffc8 	addiu	sp,sp,-56
  4006e4:	afbc0010 	sw	gp,16(sp)
  4006e8:	afb50030 	sw	s5,48(sp)
  4006ec:	afb4002c 	sw	s4,44(sp)
  4006f0:	afb30028 	sw	s3,40(sp)
  4006f4:	afb20024 	sw	s2,36(sp)
  4006f8:	afb0001c 	sw	s0,28(sp)
  4006fc:	afbf0034 	sw	ra,52(sp)
  400700:	afb10020 	sw	s1,32(sp)
  400704:	0080a825 	move	s5,a0
  400708:	00a0a025 	move	s4,a1
  40070c:	0411ff39 	bal	4003f4 <_init@@Base>
  400710:	00c09825 	move	s3,a2
  400714:	8fbc0010 	lw	gp,16(sp)
  400718:	8f92801c 	lw	s2,-32740(gp)
  40071c:	8f82801c 	lw	v0,-32740(gp)
  400720:	02408025 	move	s0,s2
  400724:	00529023 	subu	s2,v0,s2
  400728:	00129083 	sra	s2,s2,0x2
  40072c:	12400009 	beqz	s2,400754 <_init@@Base+0x360>
  400730:	00008825 	move	s1,zero
  400734:	8e190000 	lw	t9,0(s0)
  400738:	02603025 	move	a2,s3
  40073c:	02802825 	move	a1,s4
  400740:	02a02025 	move	a0,s5
  400744:	0320f809 	jalr	t9
  400748:	26310001 	addiu	s1,s1,1
  40074c:	1632fff9 	bne	s1,s2,400734 <_init@@Base+0x340>
  400750:	26100004 	addiu	s0,s0,4
  400754:	8fbf0034 	lw	ra,52(sp)
  400758:	8fb50030 	lw	s5,48(sp)
  40075c:	8fb4002c 	lw	s4,44(sp)
  400760:	8fb30028 	lw	s3,40(sp)
  400764:	8fb20024 	lw	s2,36(sp)
  400768:	8fb10020 	lw	s1,32(sp)
  40076c:	8fb0001c 	lw	s0,28(sp)
  400770:	03e00008 	jr	ra
  400774:	27bd0038 	addiu	sp,sp,56
  400778:	03e00008 	jr	ra
  40077c:	00000000 	nop
  400780:	3c020041 	lui	v0,0x41
  400784:	8c590870 	lw	t9,2160(v0)
  400788:	2402ffff 	li	v0,-1
  40078c:	13220010 	beq	t9,v0,4007d0 <_init@@Base+0x3dc>
  400790:	00000000 	nop
  400794:	27bdffd8 	addiu	sp,sp,-40
  400798:	afb0001c 	sw	s0,28(sp)
  40079c:	3c100041 	lui	s0,0x41
  4007a0:	afb10020 	sw	s1,32(sp)
  4007a4:	afbf0024 	sw	ra,36(sp)
  4007a8:	26100870 	addiu	s0,s0,2160
  4007ac:	2411ffff 	li	s1,-1
  4007b0:	0320f809 	jalr	t9
  4007b4:	2610fffc 	addiu	s0,s0,-4
  4007b8:	8e190000 	lw	t9,0(s0)
  4007bc:	1731fffc 	bne	t9,s1,4007b0 <_init@@Base+0x3bc>
  4007c0:	8fbf0024 	lw	ra,36(sp)
  4007c4:	8fb10020 	lw	s1,32(sp)
  4007c8:	8fb0001c 	lw	s0,28(sp)
  4007cc:	27bd0028 	addiu	sp,sp,40
  4007d0:	03e00008 	jr	ra
  4007d4:	00000000 	nop
	...

Disassembly of section .fini:

004007e0 <.fini>:
  4007e0:	3c1c0002 	lui	gp,0x2
  4007e4:	279c80c0 	addiu	gp,gp,-32576
  4007e8:	0399e021 	addu	gp,gp,t9
  4007ec:	27bdffe0 	addiu	sp,sp,-32
  4007f0:	afbc0010 	sw	gp,16(sp)
  4007f4:	afbf001c 	sw	ra,28(sp)
  4007f8:	04110001 	bal	400800 <_init@@Base+0x40c>
  4007fc:	00000000 	nop
  400800:	3c190040 	lui	t9,0x40
  400804:	27390544 	addiu	t9,t9,1348
  400808:	0320f809 	jalr	t9
  40080c:	00000000 	nop
  400810:	8fbf001c 	lw	ra,28(sp)
  400814:	03e00008 	jr	ra
  400818:	27bd0020 	addiu	sp,sp,32

Disassembly of section .plt:

00400840 <_PROCEDURE_LINKAGE_TABLE_>:
  400840:	3c1c0041 	lui	gp,0x41
  400844:	8f990884 	lw	t9,2180(gp)
  400848:	279c0884 	addiu	gp,gp,2180
  40084c:	031cc023 	subu	t8,t8,gp
  400850:	03e07825 	move	t7,ra
  400854:	0018c082 	srl	t8,t8,0x2
  400858:	0320f809 	jalr	t9
  40085c:	2718fffe 	addiu	t8,t8,-2

00400860 <__libc_start_main@plt>:
  400860:	3c0f0041 	lui	t7,0x41
  400864:	8df9088c 	lw	t9,2188(t7)
  400868:	03200008 	jr	t9
  40086c:	25f8088c 	addiu	t8,t7,2188

Disassembly of section .rld_map:

004108a0 <__RLD_MAP@@Base>:
  4108a0:	00000000 	nop
